target datalayout = "e-m:e-p270:32:32-p271:32:32-p272:64:64-i64:64-i128:128-f80:128-n8:16:32:64-S128"
target triple = "x86_64-pc-linux-gnu"

%struct._ir_ctx = type { ptr, i32, i32, i32, i32, i32, i32, i32, i32, i32, i32, %struct._ir_insn, ptr, ptr, ptr, i32, i32, i32, ptr, ptr, ptr, ptr, ptr, i32, i32, i64, i32, i32, i32, i64, i32, i32, i32, i32, ptr, ptr, ptr, ptr, ptr, ptr, %union.anon.13, ptr, i32, i32, i32, i64, i32, i32, i32, ptr, ptr, ptr, ptr, %struct._ir_strtab, [61 x i32], [14 x i32] }
%struct._ir_insn = type { %struct.anon, %union.anon.5 }
%struct.anon = type { %union.anon, %union.anon.4 }
%union.anon = type { i32 }
%union.anon.4 = type { i32 }
%union.anon.5 = type { %union._ir_val }
%union._ir_val = type { double }
%union.anon.13 = type { ptr }
%struct._ir_strtab = type { ptr, i32, i32, i32, i32, ptr, i32, i32 }
%struct.anon.0 = type { %union.anon.1, %union.anon.3 }
%union.anon.1 = type { i16 }
%union.anon.3 = type { i16 }
%struct.anon.2 = type { i8, i8 }
%struct._ir_use_list = type { i32, i32 }
%struct._ir_block = type { i32, i32, i32, i32, i32, i32, i32, %union.anon.14, %union.anon.15, i32, i32, i32, i32 }
%union.anon.14 = type { i32 }
%union.anon.15 = type { i32 }

; Function Attrs: nounwind uwtable
define hidden i32 @ir_compute_dessa_moves(ptr noundef %0) #0 {
  %2 = alloca ptr, align 8
  %3 = alloca i32, align 4
  %4 = alloca ptr, align 8
  %5 = alloca ptr, align 8
  %6 = alloca i32, align 4
  %7 = alloca ptr, align 8
  %8 = alloca ptr, align 8
  %9 = alloca i32, align 4
  %10 = alloca i32, align 4
  %11 = alloca i32, align 4
  %12 = alloca i32, align 4
  %13 = alloca i32, align 4
  %14 = alloca ptr, align 8
  %15 = alloca i32, align 4
  %16 = alloca ptr, align 8
  %17 = alloca ptr, align 8
  %18 = alloca ptr, align 8
  %19 = alloca i32, align 4
  store ptr %0, ptr %8, align 8
  store i32 1, ptr %9, align 4
  %20 = load ptr, ptr %8, align 8
  %21 = getelementptr inbounds %struct._ir_ctx, ptr %20, i32 0, i32 18
  %22 = load ptr, ptr %21, align 8
  %23 = getelementptr inbounds %struct._ir_block, ptr %22, i64 1
  store ptr %23, ptr %16, align 8
  br label %24

24:                                               ; preds = %169, %1
  %25 = load i32, ptr %9, align 4
  %26 = load ptr, ptr %8, align 8
  %27 = getelementptr inbounds %struct._ir_ctx, ptr %26, i32 0, i32 16
  %28 = load i32, ptr %27, align 4
  %29 = icmp ule i32 %25, %28
  br i1 %29, label %30, label %174

30:                                               ; preds = %24
  %31 = load ptr, ptr %16, align 8
  %32 = getelementptr inbounds %struct._ir_block, ptr %31, i32 0, i32 6
  %33 = load i32, ptr %32, align 4
  store i32 %33, ptr %13, align 4
  %34 = load i32, ptr %13, align 4
  %35 = icmp sgt i32 %34, 1
  br i1 %35, label %36, label %168

36:                                               ; preds = %30
  %37 = load ptr, ptr %8, align 8
  %38 = getelementptr inbounds %struct._ir_ctx, ptr %37, i32 0, i32 13
  %39 = load ptr, ptr %38, align 8
  %40 = load ptr, ptr %16, align 8
  %41 = getelementptr inbounds %struct._ir_block, ptr %40, i32 0, i32 1
  %42 = load i32, ptr %41, align 4
  %43 = sext i32 %42 to i64
  %44 = getelementptr inbounds %struct._ir_use_list, ptr %39, i64 %43
  store ptr %44, ptr %17, align 8
  %45 = load ptr, ptr %17, align 8
  %46 = getelementptr inbounds %struct._ir_use_list, ptr %45, i32 0, i32 1
  %47 = load i32, ptr %46, align 4
  store i32 %47, ptr %11, align 4
  %48 = load i32, ptr %11, align 4
  %49 = icmp ugt i32 %48, 1
  br i1 %49, label %50, label %167

50:                                               ; preds = %36
  %51 = load i32, ptr %13, align 4
  %52 = add nsw i32 %51, 1
  store i32 %52, ptr %13, align 4
  store i32 0, ptr %10, align 4
  %53 = load ptr, ptr %8, align 8
  %54 = getelementptr inbounds %struct._ir_ctx, ptr %53, i32 0, i32 14
  %55 = load ptr, ptr %54, align 8
  %56 = load ptr, ptr %17, align 8
  %57 = getelementptr inbounds %struct._ir_use_list, ptr %56, i32 0, i32 0
  %58 = load i32, ptr %57, align 4
  %59 = sext i32 %58 to i64
  %60 = getelementptr inbounds i32, ptr %55, i64 %59
  store ptr %60, ptr %14, align 8
  br label %61

61:                                               ; preds = %161, %50
  %62 = load i32, ptr %10, align 4
  %63 = load i32, ptr %11, align 4
  %64 = icmp ult i32 %62, %63
  br i1 %64, label %65, label %166

65:                                               ; preds = %61
  %66 = load ptr, ptr %14, align 8
  %67 = load i32, ptr %66, align 4
  store i32 %67, ptr %15, align 4
  %68 = load ptr, ptr %8, align 8
  %69 = getelementptr inbounds %struct._ir_ctx, ptr %68, i32 0, i32 0
  %70 = load ptr, ptr %69, align 8
  %71 = load i32, ptr %15, align 4
  %72 = sext i32 %71 to i64
  %73 = getelementptr inbounds %struct._ir_insn, ptr %70, i64 %72
  store ptr %73, ptr %18, align 8
  %74 = load ptr, ptr %18, align 8
  %75 = getelementptr inbounds %struct._ir_insn, ptr %74, i32 0, i32 0
  %76 = getelementptr inbounds %struct.anon, ptr %75, i32 0, i32 0
  %77 = getelementptr inbounds %struct.anon.0, ptr %76, i32 0, i32 0
  %78 = getelementptr inbounds %struct.anon.2, ptr %77, i32 0, i32 0
  %79 = load i8, ptr %78, align 8
  %80 = zext i8 %79 to i32
  %81 = icmp eq i32 %80, 59
  br i1 %81, label %82, label %160

82:                                               ; preds = %65
  store i32 2, ptr %12, align 4
  br label %83

83:                                               ; preds = %156, %82
  %84 = load i32, ptr %12, align 4
  %85 = load i32, ptr %13, align 4
  %86 = icmp sle i32 %84, %85
  br i1 %86, label %87, label %159

87:                                               ; preds = %83
  %88 = load ptr, ptr %18, align 8
  %89 = load i32, ptr %12, align 4
  store ptr %88, ptr %2, align 8
  store i32 %89, ptr %3, align 4
  %90 = load ptr, ptr %2, align 8
  %91 = load i32, ptr %3, align 4
  %92 = sext i32 %91 to i64
  %93 = getelementptr inbounds i32, ptr %90, i64 %92
  store ptr %93, ptr %4, align 8
  %94 = load ptr, ptr %4, align 8
  %95 = load i32, ptr %94, align 4
  %96 = icmp slt i32 %95, 0
  br i1 %96, label %120, label %97

97:                                               ; preds = %87
  %98 = load ptr, ptr %8, align 8
  %99 = getelementptr inbounds %struct._ir_ctx, ptr %98, i32 0, i32 22
  %100 = load ptr, ptr %99, align 8
  %101 = load ptr, ptr %18, align 8
  %102 = load i32, ptr %12, align 4
  store ptr %101, ptr %5, align 8
  store i32 %102, ptr %6, align 4
  %103 = load ptr, ptr %5, align 8
  %104 = load i32, ptr %6, align 4
  %105 = sext i32 %104 to i64
  %106 = getelementptr inbounds i32, ptr %103, i64 %105
  store ptr %106, ptr %7, align 8
  %107 = load ptr, ptr %7, align 8
  %108 = load i32, ptr %107, align 4
  %109 = sext i32 %108 to i64
  %110 = getelementptr inbounds i32, ptr %100, i64 %109
  %111 = load i32, ptr %110, align 4
  %112 = load ptr, ptr %8, align 8
  %113 = getelementptr inbounds %struct._ir_ctx, ptr %112, i32 0, i32 22
  %114 = load ptr, ptr %113, align 8
  %115 = load i32, ptr %15, align 4
  %116 = sext i32 %115 to i64
  %117 = getelementptr inbounds i32, ptr %114, i64 %116
  %118 = load i32, ptr %117, align 4
  %119 = icmp ne i32 %111, %118
  br i1 %119, label %120, label %155

120:                                              ; preds = %97, %87
  %121 = load ptr, ptr %8, align 8
  %122 = getelementptr inbounds %struct._ir_ctx, ptr %121, i32 0, i32 19
  %123 = load ptr, ptr %122, align 8
  %124 = load ptr, ptr %16, align 8
  %125 = getelementptr inbounds %struct._ir_block, ptr %124, i32 0, i32 5
  %126 = load i32, ptr %125, align 4
  %127 = load i32, ptr %12, align 4
  %128 = sub nsw i32 %127, 2
  %129 = add i32 %126, %128
  %130 = zext i32 %129 to i64
  %131 = getelementptr inbounds i32, ptr %123, i64 %130
  %132 = load i32, ptr %131, align 4
  store i32 %132, ptr %19, align 4
  %133 = load ptr, ptr %8, align 8
  %134 = getelementptr inbounds %struct._ir_ctx, ptr %133, i32 0, i32 18
  %135 = load ptr, ptr %134, align 8
  %136 = load i32, ptr %19, align 4
  %137 = sext i32 %136 to i64
  %138 = getelementptr inbounds %struct._ir_block, ptr %135, i64 %137
  %139 = getelementptr inbounds %struct._ir_block, ptr %138, i32 0, i32 0
  %140 = load i32, ptr %139, align 4
  %141 = and i32 %140, -65
  store i32 %141, ptr %139, align 4
  %142 = load ptr, ptr %8, align 8
  %143 = getelementptr inbounds %struct._ir_ctx, ptr %142, i32 0, i32 18
  %144 = load ptr, ptr %143, align 8
  %145 = load i32, ptr %19, align 4
  %146 = sext i32 %145 to i64
  %147 = getelementptr inbounds %struct._ir_block, ptr %144, i64 %146
  %148 = getelementptr inbounds %struct._ir_block, ptr %147, i32 0, i32 0
  %149 = load i32, ptr %148, align 4
  %150 = or i32 %149, 32
  store i32 %150, ptr %148, align 4
  %151 = load ptr, ptr %8, align 8
  %152 = getelementptr inbounds %struct._ir_ctx, ptr %151, i32 0, i32 6
  %153 = load i32, ptr %152, align 4
  %154 = or i32 %153, 33554432
  store i32 %154, ptr %152, align 4
  br label %155

155:                                              ; preds = %120, %97
  br label %156

156:                                              ; preds = %155
  %157 = load i32, ptr %12, align 4
  %158 = add nsw i32 %157, 1
  store i32 %158, ptr %12, align 4
  br label %83

159:                                              ; preds = %83
  br label %160

160:                                              ; preds = %159, %65
  br label %161

161:                                              ; preds = %160
  %162 = load i32, ptr %10, align 4
  %163 = add i32 %162, 1
  store i32 %163, ptr %10, align 4
  %164 = load ptr, ptr %14, align 8
  %165 = getelementptr inbounds i32, ptr %164, i32 1
  store ptr %165, ptr %14, align 8
  br label %61

166:                                              ; preds = %61
  br label %167

167:                                              ; preds = %166, %36
  br label %168

168:                                              ; preds = %167, %30
  br label %169

169:                                              ; preds = %168
  %170 = load i32, ptr %9, align 4
  %171 = add i32 %170, 1
  store i32 %171, ptr %9, align 4
  %172 = load ptr, ptr %16, align 8
  %173 = getelementptr inbounds %struct._ir_block, ptr %172, i32 1
  store ptr %173, ptr %16, align 8
  br label %24

174:                                              ; preds = %24
  ret i32 1
}