; Function Attrs: nofree norecurse nosync nounwind memory(readwrite, inaccessiblemem: none) uwtable
define hidden noundef i32 @ir_compute_dessa_moves(ptr nocapture noundef %0) local_unnamed_addr #8 {
  %2 = getelementptr inbounds i8, ptr %0, i64 104
  %3 = getelementptr inbounds i8, ptr %0, i64 92
  %4 = load i32, ptr %3, align 4
  %.not60 = icmp eq i32 %4, 0
  br i1 %.not60, label %._crit_edge, label %.lr.ph

.lr.ph:                                           ; preds = %1
  %5 = load ptr, ptr %2, align 8
  %6 = getelementptr inbounds i8, ptr %0, i64 72
  %7 = getelementptr inbounds i8, ptr %0, i64 80
  %8 = getelementptr inbounds i8, ptr %0, i64 136
  %9 = getelementptr inbounds i8, ptr %0, i64 112
  %10 = getelementptr inbounds i8, ptr %0, i64 28
  br label %11

11:                                               ; preds = %.lr.ph, %.loopexit54
  %12 = phi i32 [ %4, %.lr.ph ], [ %70, %.loopexit54 ]
  %.062 = phi i32 [ 1, %.lr.ph ], [ %71, %.loopexit54 ]
  %.pn61 = phi ptr [ %5, %.lr.ph ], [ %.04763, %.loopexit54 ]
  %.04763 = getelementptr inbounds i8, ptr %.pn61, i64 52
  %13 = getelementptr inbounds i8, ptr %.pn61, i64 76
  %14 = load i32, ptr %13, align 4
  %15 = icmp sgt i32 %14, 1
  br i1 %15, label %16, label %.loopexit54

16:                                               ; preds = %11
  %17 = load ptr, ptr %6, align 8
  %18 = getelementptr inbounds i8, ptr %.pn61, i64 56
  %19 = load i32, ptr %18, align 4
  %20 = sext i32 %19 to i64
  %21 = getelementptr inbounds %struct._ir_use_list, ptr %17, i64 %20
  %22 = getelementptr inbounds i8, ptr %21, i64 4
  %23 = load i32, ptr %22, align 4
  %24 = icmp ugt i32 %23, 1
  br i1 %24, label %.split.preheader, label %.loopexit54

.split.preheader:                                 ; preds = %16
  %25 = getelementptr inbounds i8, ptr %.pn61, i64 72
  %26 = load ptr, ptr %7, align 8
  %27 = load i32, ptr %21, align 4
  %28 = sext i32 %27 to i64
  %29 = getelementptr inbounds i32, ptr %26, i64 %28
  %30 = add nuw i32 %14, 2
  %wide.trip.count = zext i32 %30 to i64
  br label %.split

.split:                                           ; preds = %.split.preheader, %..loopexit_crit_edge
  %.04558 = phi i32 [ %68, %..loopexit_crit_edge ], [ 0, %.split.preheader ]
  %.04857 = phi ptr [ %69, %..loopexit_crit_edge ], [ %29, %.split.preheader ]
  %31 = load i32, ptr %.04857, align 4
  %32 = load ptr, ptr %0, align 8
  %33 = sext i32 %31 to i64
  %34 = getelementptr inbounds %struct._ir_insn, ptr %32, i64 %33
  %35 = load i8, ptr %34, align 8
  %36 = icmp eq i8 %35, 59
  br i1 %36, label %.preheader, label %..loopexit_crit_edge

.preheader:                                       ; preds = %.split, %67
  %indvars.iv = phi i64 [ %indvars.iv.next, %67 ], [ 2, %.split ]
  %37 = getelementptr inbounds i32, ptr %34, i64 %indvars.iv
  %38 = load i32, ptr %37, align 4
  %39 = icmp slt i32 %38, 0
  br i1 %39, label %47, label %40

40:                                               ; preds = %.preheader
  %41 = load ptr, ptr %8, align 8
  %42 = zext nneg i32 %38 to i64
  %43 = getelementptr inbounds i32, ptr %41, i64 %42
  %44 = load i32, ptr %43, align 4
  %45 = getelementptr inbounds i32, ptr %41, i64 %33
  %46 = load i32, ptr %45, align 4
  %.not53 = icmp eq i32 %44, %46
  br i1 %.not53, label %67, label %47

47:                                               ; preds = %40, %.preheader
  %48 = load ptr, ptr %9, align 8
  %49 = load i32, ptr %25, align 4
  %50 = trunc i64 %indvars.iv to i32
  %51 = add i32 %50, -2
  %52 = add i32 %51, %49
  %53 = zext i32 %52 to i64
  %54 = getelementptr inbounds i32, ptr %48, i64 %53
  %55 = load i32, ptr %54, align 4
  %56 = load ptr, ptr %2, align 8
  %57 = sext i32 %55 to i64
  %58 = getelementptr inbounds %struct._ir_block, ptr %56, i64 %57
  %59 = load i32, ptr %58, align 4
  %60 = and i32 %59, -65
  store i32 %60, ptr %58, align 4
  %61 = load ptr, ptr %2, align 8
  %62 = getelementptr inbounds %struct._ir_block, ptr %61, i64 %57
  %63 = load i32, ptr %62, align 4
  %64 = or i32 %63, 32
  store i32 %64, ptr %62, align 4
  %65 = load i32, ptr %10, align 4
  %66 = or i32 %65, 33554432
  store i32 %66, ptr %10, align 4
  br label %67

67:                                               ; preds = %40, %47
  %indvars.iv.next = add nuw nsw i64 %indvars.iv, 1
  %exitcond = icmp eq i64 %indvars.iv.next, %wide.trip.count
  br i1 %exitcond, label %..loopexit_crit_edge, label %.preheader

..loopexit_crit_edge:                             ; preds = %67, %.split
  %68 = add nuw i32 %.04558, 1
  %69 = getelementptr inbounds i8, ptr %.04857, i64 4
  %exitcond66.not = icmp eq i32 %68, %23
  br i1 %exitcond66.not, label %.loopexit54.loopexit64, label %.split

.loopexit54.loopexit64:                           ; preds = %..loopexit_crit_edge
  %.pre = load i32, ptr %3, align 4
  br label %.loopexit54

.loopexit54:                                      ; preds = %.loopexit54.loopexit64, %11, %16
  %70 = phi i32 [ %.pre, %.loopexit54.loopexit64 ], [ %12, %11 ], [ %12, %16 ]
  %71 = add i32 %.062, 1
  %.not = icmp ugt i32 %71, %70
  br i1 %.not, label %._crit_edge, label %11

._crit_edge:                                      ; preds = %.loopexit54, %1
  ret i32 1
}